; Function Attrs: nounwind uwtable
define internal range(i32 -1, 1) i32 @dict_ass_sub(ptr noundef %0, ptr noundef %1, ptr noundef %2) #0 {
  %4 = icmp eq ptr %2, null
  br i1 %4, label %5, label %13

5:                                                ; preds = %3
  %6 = getelementptr i8, ptr %1, i64 8
  %.val.i.i = load ptr, ptr %6, align 8, !tbaa !25
  %.not.i.i = icmp eq ptr %.val.i.i, @PyUnicode_Type
  br i1 %.not.i.i, label %7, label %_PyObject_HashFast.exit.i

7:                                                ; preds = %5
  %8 = getelementptr inbounds nuw i8, ptr %1, i64 24
  %9 = load i64, ptr %8, align 8, !tbaa !55
  %.not7.not.i.i = icmp eq i64 %9, -1
  br i1 %.not7.not.i.i, label %_PyObject_HashFast.exit.i, label %_PyObject_HashFast.exit.thread.i

_PyObject_HashFast.exit.i:                        ; preds = %7, %5
  %10 = tail call i64 @PyObject_Hash(ptr noundef nonnull %1) #23
  %11 = icmp eq i64 %10, -1
  br i1 %11, label %PyDict_DelItem.exit, label %_PyObject_HashFast.exit.thread.i

_PyObject_HashFast.exit.thread.i:                 ; preds = %_PyObject_HashFast.exit.i, %7
  %.1.i7.i = phi i64 [ %10, %_PyObject_HashFast.exit.i ], [ %9, %7 ]
  %12 = tail call fastcc range(i32 -1, 1) i32 @delitem_knownhash_lock_held(ptr noundef %0, ptr noundef nonnull %1, i64 noundef %.1.i7.i)
  br label %PyDict_DelItem.exit

13:                                               ; preds = %3
  %14 = getelementptr i8, ptr %0, i64 8
  %.val.i = load ptr, ptr %14, align 8, !tbaa !25
  %15 = getelementptr i8, ptr %.val.i, i64 168
  %.val4.i = load i64, ptr %15, align 8, !tbaa !28
  %16 = and i64 %.val4.i, 536870912
  %.not.i = icmp eq i64 %16, 0
  br i1 %.not.i, label %17, label %18

17:                                               ; preds = %13
  tail call void @_PyErr_BadInternalCall(ptr noundef nonnull @.str.3, i32 noundef 2617) #23
  br label %PyDict_DelItem.exit

18:                                               ; preds = %13
  %19 = load i32, ptr %1, align 8, !tbaa !41
  %20 = icmp slt i32 %19, 0
  br i1 %20, label %_Py_NewRef.exit.i, label %21

21:                                               ; preds = %18
  %22 = add nuw i32 %19, 1
  store i32 %22, ptr %1, align 8, !tbaa !41
  br label %_Py_NewRef.exit.i

_Py_NewRef.exit.i:                                ; preds = %21, %18
  %23 = load i32, ptr %2, align 8, !tbaa !41
  %24 = icmp slt i32 %23, 0
  br i1 %24, label %_Py_NewRef.exit5.i, label %25

25:                                               ; preds = %_Py_NewRef.exit.i
  %26 = add nuw i32 %23, 1
  store i32 %26, ptr %2, align 8, !tbaa !41
  br label %_Py_NewRef.exit5.i

_Py_NewRef.exit5.i:                               ; preds = %25, %_Py_NewRef.exit.i
  %27 = tail call fastcc range(i32 -1, 1) i32 @setitem_take2_lock_held(ptr noundef nonnull %0, ptr noundef nonnull %1, ptr noundef nonnull %2)
  br label %PyDict_DelItem.exit

PyDict_DelItem.exit:                              ; preds = %_Py_NewRef.exit5.i, %17, %_PyObject_HashFast.exit.thread.i, %_PyObject_HashFast.exit.i
  %.0 = phi i32 [ %12, %_PyObject_HashFast.exit.thread.i ], [ -1, %_PyObject_HashFast.exit.i ], [ %27, %_Py_NewRef.exit5.i ], [ -1, %17 ]
  ret i32 %.0
}